; ModuleID = '8/1022.c'
source_filename = "8/1022.c"
target datalayout = "e-m:e-p270:32:32-p271:32:32-p272:64:64-i64:64-f80:128-n8:16:32:64-S128"
target triple = "x86_64-pc-linux-gnu"

@.str = private unnamed_addr constant [6 x i8] c"%d %d\00", align 1
@.str.1 = private unnamed_addr constant [3 x i8] c"%d\00", align 1
@.str.2 = private unnamed_addr constant [4 x i8] c" %d\00", align 1

; Function Attrs: noinline nounwind uwtable
define dso_local i32 @main() #0 {
  %1 = alloca i32, align 4
  %2 = alloca i32, align 4
  %3 = alloca i32, align 4
  %4 = alloca i32, align 4
  %5 = alloca i32, align 4
  %6 = alloca i32, align 4
  %7 = alloca i32, align 4
  %8 = alloca i32*, align 8
  %9 = alloca i32*, align 8
  store i32 0, i32* %1, align 4
  store i32 0, i32* %7, align 4
  %10 = call i32 (i8*, ...) @__isoc99_scanf(i8* getelementptr inbounds ([6 x i8], [6 x i8]* @.str, i64 0, i64 0), i32* %6, i32* %5)
  %11 = load i32, i32* %6, align 4
  %12 = sext i32 %11 to i64
  %13 = mul i64 %12, 4
  %14 = call noalias i8* @malloc(i64 %13) #3
  %15 = bitcast i8* %14 to i32*
  store i32* %15, i32** %8, align 8
  %16 = load i32, i32* %5, align 4
  %17 = sext i32 %16 to i64
  %18 = mul i64 %17, 4
  %19 = call noalias i8* @malloc(i64 %18) #3
  %20 = bitcast i8* %19 to i32*
  store i32* %20, i32** %9, align 8
  store i32 0, i32* %2, align 4
  br label %21

21:                                               ; preds = %31, %0
  %22 = load i32, i32* %2, align 4
  %23 = load i32, i32* %6, align 4
  %24 = icmp slt i32 %22, %23
  br i1 %24, label %25, label %34

25:                                               ; preds = %21
  %26 = load i32*, i32** %8, align 8
  %27 = load i32, i32* %2, align 4
  %28 = sext i32 %27 to i64
  %29 = getelementptr inbounds i32, i32* %26, i64 %28
  %30 = call i32 (i8*, ...) @__isoc99_scanf(i8* getelementptr inbounds ([3 x i8], [3 x i8]* @.str.1, i64 0, i64 0), i32* %29)
  br label %31

31:                                               ; preds = %25
  %32 = load i32, i32* %2, align 4
  %33 = add nsw i32 %32, 1
  store i32 %33, i32* %2, align 4
  br label %21

34:                                               ; preds = %21
  store i32 0, i32* %2, align 4
  br label %35

35:                                               ; preds = %45, %34
  %36 = load i32, i32* %2, align 4
  %37 = load i32, i32* %5, align 4
  %38 = icmp slt i32 %36, %37
  br i1 %38, label %39, label %48

39:                                               ; preds = %35
  %40 = load i32*, i32** %9, align 8
  %41 = load i32, i32* %2, align 4
  %42 = sext i32 %41 to i64
  %43 = getelementptr inbounds i32, i32* %40, i64 %42
  %44 = call i32 (i8*, ...) @__isoc99_scanf(i8* getelementptr inbounds ([3 x i8], [3 x i8]* @.str.1, i64 0, i64 0), i32* %43)
  br label %45

45:                                               ; preds = %39
  %46 = load i32, i32* %2, align 4
  %47 = add nsw i32 %46, 1
  store i32 %47, i32* %2, align 4
  br label %35

48:                                               ; preds = %35
  store i32 0, i32* %2, align 4
  br label %49

49:                                               ; preds = %101, %48
  %50 = load i32, i32* %2, align 4
  %51 = load i32, i32* %6, align 4
  %52 = icmp slt i32 %50, %51
  br i1 %52, label %53, label %104

53:                                               ; preds = %49
  store i32 0, i32* %3, align 4
  br label %54

54:                                               ; preds = %97, %53
  %55 = load i32, i32* %3, align 4
  %56 = load i32, i32* %6, align 4
  %57 = load i32, i32* %2, align 4
  %58 = sub nsw i32 %56, %57
  %59 = sub nsw i32 %58, 1
  %60 = icmp slt i32 %55, %59
  br i1 %60, label %61, label %100

61:                                               ; preds = %54
  %62 = load i32*, i32** %8, align 8
  %63 = load i32, i32* %3, align 4
  %64 = sext i32 %63 to i64
  %65 = getelementptr inbounds i32, i32* %62, i64 %64
  %66 = load i32, i32* %65, align 4
  %67 = load i32*, i32** %8, align 8
  %68 = load i32, i32* %3, align 4
  %69 = add nsw i32 %68, 1
  %70 = sext i32 %69 to i64
  %71 = getelementptr inbounds i32, i32* %67, i64 %70
  %72 = load i32, i32* %71, align 4
  %73 = icmp sgt i32 %66, %72
  br i1 %73, label %74, label %96

74:                                               ; preds = %61
  %75 = load i32*, i32** %8, align 8
  %76 = load i32, i32* %3, align 4
  %77 = add nsw i32 %76, 1
  %78 = sext i32 %77 to i64
  %79 = getelementptr inbounds i32, i32* %75, i64 %78
  %80 = load i32, i32* %79, align 4
  store i32 %80, i32* %7, align 4
  %81 = load i32*, i32** %8, align 8
  %82 = load i32, i32* %3, align 4
  %83 = sext i32 %82 to i64
  %84 = getelementptr inbounds i32, i32* %81, i64 %83
  %85 = load i32, i32* %84, align 4
  %86 = load i32*, i32** %8, align 8
  %87 = load i32, i32* %3, align 4
  %88 = add nsw i32 %87, 1
  %89 = sext i32 %88 to i64
  %90 = getelementptr inbounds i32, i32* %86, i64 %89
  store i32 %85, i32* %90, align 4
  %91 = load i32, i32* %7, align 4
  %92 = load i32*, i32** %8, align 8
  %93 = load i32, i32* %3, align 4
  %94 = sext i32 %93 to i64
  %95 = getelementptr inbounds i32, i32* %92, i64 %94
  store i32 %91, i32* %95, align 4
  br label %96

96:                                               ; preds = %74, %61
  br label %97

97:                                               ; preds = %96
  %98 = load i32, i32* %3, align 4
  %99 = add nsw i32 %98, 1
  store i32 %99, i32* %3, align 4
  br label %54

100:                                              ; preds = %54
  br label %101

101:                                              ; preds = %100
  %102 = load i32, i32* %2, align 4
  %103 = add nsw i32 %102, 1
  store i32 %103, i32* %2, align 4
  br label %49

104:                                              ; preds = %49
  %105 = load i32*, i32** %8, align 8
  %106 = getelementptr inbounds i32, i32* %105, i64 0
  %107 = load i32, i32* %106, align 4
  %108 = call i32 (i8*, ...) @printf(i8* getelementptr inbounds ([3 x i8], [3 x i8]* @.str.1, i64 0, i64 0), i32 %107)
  store i32 1, i32* %2, align 4
  br label %109

109:                                              ; preds = %120, %104
  %110 = load i32, i32* %2, align 4
  %111 = load i32, i32* %6, align 4
  %112 = icmp slt i32 %110, %111
  br i1 %112, label %113, label %123

113:                                              ; preds = %109
  %114 = load i32*, i32** %8, align 8
  %115 = load i32, i32* %2, align 4
  %116 = sext i32 %115 to i64
  %117 = getelementptr inbounds i32, i32* %114, i64 %116
  %118 = load i32, i32* %117, align 4
  %119 = call i32 (i8*, ...) @printf(i8* getelementptr inbounds ([4 x i8], [4 x i8]* @.str.2, i64 0, i64 0), i32 %118)
  br label %120

120:                                              ; preds = %113
  %121 = load i32, i32* %2, align 4
  %122 = add nsw i32 %121, 1
  store i32 %122, i32* %2, align 4
  br label %109

123:                                              ; preds = %109
  store i32 0, i32* %2, align 4
  br label %124

124:                                              ; preds = %176, %123
  %125 = load i32, i32* %2, align 4
  %126 = load i32, i32* %5, align 4
  %127 = icmp slt i32 %125, %126
  br i1 %127, label %128, label %179

128:                                              ; preds = %124
  store i32 0, i32* %3, align 4
  br label %129

129:                                              ; preds = %172, %128
  %130 = load i32, i32* %3, align 4
  %131 = load i32, i32* %5, align 4
  %132 = load i32, i32* %2, align 4
  %133 = sub nsw i32 %131, %132
  %134 = sub nsw i32 %133, 1
  %135 = icmp slt i32 %130, %134
  br i1 %135, label %136, label %175

136:                                              ; preds = %129
  %137 = load i32*, i32** %9, align 8
  %138 = load i32, i32* %3, align 4
  %139 = sext i32 %138 to i64
  %140 = getelementptr inbounds i32, i32* %137, i64 %139
  %141 = load i32, i32* %140, align 4
  %142 = load i32*, i32** %9, align 8
  %143 = load i32, i32* %3, align 4
  %144 = add nsw i32 %143, 1
  %145 = sext i32 %144 to i64
  %146 = getelementptr inbounds i32, i32* %142, i64 %145
  %147 = load i32, i32* %146, align 4
  %148 = icmp sgt i32 %141, %147
  br i1 %148, label %149, label %171

149:                                              ; preds = %136
  %150 = load i32*, i32** %9, align 8
  %151 = load i32, i32* %3, align 4
  %152 = add nsw i32 %151, 1
  %153 = sext i32 %152 to i64
  %154 = getelementptr inbounds i32, i32* %150, i64 %153
  %155 = load i32, i32* %154, align 4
  store i32 %155, i32* %7, align 4
  %156 = load i32*, i32** %9, align 8
  %157 = load i32, i32* %3, align 4
  %158 = sext i32 %157 to i64
  %159 = getelementptr inbounds i32, i32* %156, i64 %158
  %160 = load i32, i32* %159, align 4
  %161 = load i32*, i32** %9, align 8
  %162 = load i32, i32* %3, align 4
  %163 = add nsw i32 %162, 1
  %164 = sext i32 %163 to i64
  %165 = getelementptr inbounds i32, i32* %161, i64 %164
  store i32 %160, i32* %165, align 4
  %166 = load i32, i32* %7, align 4
  %167 = load i32*, i32** %9, align 8
  %168 = load i32, i32* %3, align 4
  %169 = sext i32 %168 to i64
  %170 = getelementptr inbounds i32, i32* %167, i64 %169
  store i32 %166, i32* %170, align 4
  br label %171

171:                                              ; preds = %149, %136
  br label %172

172:                                              ; preds = %171
  %173 = load i32, i32* %3, align 4
  %174 = add nsw i32 %173, 1
  store i32 %174, i32* %3, align 4
  br label %129

175:                                              ; preds = %129
  br label %176

176:                                              ; preds = %175
  %177 = load i32, i32* %2, align 4
  %178 = add nsw i32 %177, 1
  store i32 %178, i32* %2, align 4
  br label %124

179:                                              ; preds = %124
  store i32 0, i32* %2, align 4
  br label %180

180:                                              ; preds = %191, %179
  %181 = load i32, i32* %2, align 4
  %182 = load i32, i32* %5, align 4
  %183 = icmp slt i32 %181, %182
  br i1 %183, label %184, label %194

184:                                              ; preds = %180
  %185 = load i32*, i32** %9, align 8
  %186 = load i32, i32* %2, align 4
  %187 = sext i32 %186 to i64
  %188 = getelementptr inbounds i32, i32* %185, i64 %187
  %189 = load i32, i32* %188, align 4
  %190 = call i32 (i8*, ...) @printf(i8* getelementptr inbounds ([4 x i8], [4 x i8]* @.str.2, i64 0, i64 0), i32 %189)
  br label %191

191:                                              ; preds = %184
  %192 = load i32, i32* %2, align 4
  %193 = add nsw i32 %192, 1
  store i32 %193, i32* %2, align 4
  br label %180

194:                                              ; preds = %180
  %195 = load i32, i32* %1, align 4
  ret i32 %195
}

declare dso_local i32 @__isoc99_scanf(i8*, ...) #1

; Function Attrs: nounwind
declare dso_local noalias i8* @malloc(i64) #2

declare dso_local i32 @printf(i8*, ...) #1


!llvm.module.flags = !{!0}
!llvm.ident = !{!1}

!0 = !{i32 1, !"wchar_size", i32 4}
!1 = !{!"clang version 10.0.0-4ubuntu1 "}
